; Function Attrs: mustprogress nofree norecurse nosync nounwind willreturn memory(argmem: read) uwtable
define ptr @lv_draw_task_get_image_dsc(ptr nocapture noundef readonly %0) local_unnamed_addr #4 {
  %2 = getelementptr inbounds nuw i8, ptr %0, i64 8
  %3 = load i32, ptr %2, align 8, !tbaa !20
  %4 = icmp eq i32 %3, 5
  br i1 %4, label %5, label %8

5:                                                ; preds = %1
  %6 = getelementptr inbounds nuw i8, ptr %0, i64 80
  %7 = load ptr, ptr %6, align 8, !tbaa !22
  br label %8

8:                                                ; preds = %1, %5
  %9 = phi ptr [ %7, %5 ], [ null, %1 ]
  ret ptr %9
}